; Function Attrs: nounwind uwtable
define internal fastcc void @Cba_ObjSetAttrs(ptr noundef captures(none) %0, i32 noundef %1, ptr noundef readonly %2, i32 noundef %3) unnamed_addr #1 {
  %.not = icmp eq ptr %2, null
  br i1 %.not, label %Vec_IntPushArray.exit, label %5

5:                                                ; preds = %4
  %6 = getelementptr inbounds nuw i8, ptr %0, i64 216
  %7 = getelementptr inbounds nuw i8, ptr %0, i64 232
  %8 = getelementptr i8, ptr %0, i64 236
  %.val = load i32, ptr %8, align 4
  %9 = add nsw i32 %1, 1
  tail call fastcc void @Vec_IntFillExtra(ptr noundef nonnull %6, i32 noundef %9, i32 noundef 0)
  %10 = getelementptr i8, ptr %0, i64 224
  %.val.i = load ptr, ptr %10, align 8
  %11 = sext i32 %1 to i64
  %12 = getelementptr inbounds i32, ptr %.val.i, i64 %11
  store i32 %.val, ptr %12, align 4
  %13 = load i32, ptr %8, align 4
  %14 = load i32, ptr %7, align 8
  %15 = icmp eq i32 %13, %14
  br i1 %15, label %16, label %.Vec_IntGrow.exit10_crit_edge.i

.Vec_IntGrow.exit10_crit_edge.i:                  ; preds = %5
  %.phi.trans.insert.i = getelementptr inbounds nuw i8, ptr %0, i64 240
  %.pre.i = load ptr, ptr %.phi.trans.insert.i, align 8
  br label %Vec_IntPush.exit

16:                                               ; preds = %5
  %17 = icmp slt i32 %13, 16
  br i1 %17, label %18, label %26

18:                                               ; preds = %16
  %19 = getelementptr inbounds nuw i8, ptr %0, i64 240
  %20 = load ptr, ptr %19, align 8
  %.not9.i.i = icmp eq ptr %20, null
  br i1 %.not9.i.i, label %23, label %21

21:                                               ; preds = %18
  %22 = tail call dereferenceable_or_null(64) ptr @realloc(ptr noundef nonnull %20, i64 noundef 64) #28
  br label %Vec_IntGrow.exit.i

23:                                               ; preds = %18
  %24 = tail call noalias dereferenceable_or_null(64) ptr @malloc(i64 noundef 64) #25
  br label %Vec_IntGrow.exit.i

Vec_IntGrow.exit.i:                               ; preds = %23, %21
  %25 = phi ptr [ %22, %21 ], [ %24, %23 ]
  store ptr %25, ptr %19, align 8
  store i32 16, ptr %7, align 8
  br label %Vec_IntPush.exit

26:                                               ; preds = %16
  %27 = shl nuw nsw i32 %13, 1
  %28 = getelementptr inbounds nuw i8, ptr %0, i64 240
  %29 = load ptr, ptr %28, align 8
  %.not9.i9.i = icmp eq ptr %29, null
  %30 = zext nneg i32 %27 to i64
  %31 = shl nuw nsw i64 %30, 2
  br i1 %.not9.i9.i, label %34, label %32

32:                                               ; preds = %26
  %33 = tail call ptr @realloc(ptr noundef nonnull %29, i64 noundef %31) #28
  br label %36

34:                                               ; preds = %26
  %35 = tail call noalias ptr @malloc(i64 noundef %31) #25
  br label %36

36:                                               ; preds = %34, %32
  %37 = phi ptr [ %33, %32 ], [ %35, %34 ]
  store ptr %37, ptr %28, align 8
  store i32 %27, ptr %7, align 8
  br label %Vec_IntPush.exit

Vec_IntPush.exit:                                 ; preds = %.Vec_IntGrow.exit10_crit_edge.i, %Vec_IntGrow.exit.i, %36
  %38 = phi ptr [ %.pre.i, %.Vec_IntGrow.exit10_crit_edge.i ], [ %37, %36 ], [ %25, %Vec_IntGrow.exit.i ]
  %39 = load i32, ptr %8, align 4
  %40 = add nsw i32 %39, 1
  store i32 %40, ptr %8, align 4
  %41 = sext i32 %39 to i64
  %42 = getelementptr inbounds i32, ptr %38, i64 %41
  store i32 %3, ptr %42, align 4
  %43 = icmp sgt i32 %3, 0
  br i1 %43, label %.lr.ph.i, label %Vec_IntPushArray.exit

.lr.ph.i:                                         ; preds = %Vec_IntPush.exit
  %.phi.trans.insert.i.i = getelementptr inbounds nuw i8, ptr %0, i64 240
  %wide.trip.count.i = zext nneg i32 %3 to i64
  br label %44

44:                                               ; preds = %Vec_IntPush.exit.i, %.lr.ph.i
  %indvars.iv.i = phi i64 [ 0, %.lr.ph.i ], [ %indvars.iv.next.i, %Vec_IntPush.exit.i ]
  %45 = getelementptr inbounds nuw i32, ptr %2, i64 %indvars.iv.i
  %46 = load i32, ptr %45, align 4
  %47 = load i32, ptr %8, align 4
  %48 = load i32, ptr %7, align 8
  %49 = icmp eq i32 %47, %48
  br i1 %49, label %50, label %.Vec_IntGrow.exit10_crit_edge.i.i

.Vec_IntGrow.exit10_crit_edge.i.i:                ; preds = %44
  %.pre.i.i = load ptr, ptr %.phi.trans.insert.i.i, align 8
  br label %Vec_IntPush.exit.i

50:                                               ; preds = %44
  %51 = icmp slt i32 %47, 16
  br i1 %51, label %52, label %59

52:                                               ; preds = %50
  %53 = load ptr, ptr %.phi.trans.insert.i.i, align 8
  %.not9.i.i.i = icmp eq ptr %53, null
  br i1 %.not9.i.i.i, label %56, label %54

54:                                               ; preds = %52
  %55 = tail call dereferenceable_or_null(64) ptr @realloc(ptr noundef nonnull %53, i64 noundef 64) #28
  br label %Vec_IntGrow.exit.i.i

56:                                               ; preds = %52
  %57 = tail call noalias dereferenceable_or_null(64) ptr @malloc(i64 noundef 64) #25
  br label %Vec_IntGrow.exit.i.i

Vec_IntGrow.exit.i.i:                             ; preds = %56, %54
  %58 = phi ptr [ %55, %54 ], [ %57, %56 ]
  store ptr %58, ptr %.phi.trans.insert.i.i, align 8
  store i32 16, ptr %7, align 8
  br label %Vec_IntPush.exit.i

59:                                               ; preds = %50
  %60 = shl nuw nsw i32 %47, 1
  %61 = load ptr, ptr %.phi.trans.insert.i.i, align 8
  %.not9.i9.i.i = icmp eq ptr %61, null
  %62 = zext nneg i32 %60 to i64
  %63 = shl nuw nsw i64 %62, 2
  br i1 %.not9.i9.i.i, label %66, label %64

64:                                               ; preds = %59
  %65 = tail call ptr @realloc(ptr noundef nonnull %61, i64 noundef %63) #28
  br label %68

66:                                               ; preds = %59
  %67 = tail call noalias ptr @malloc(i64 noundef %63) #25
  br label %68

68:                                               ; preds = %66, %64
  %69 = phi ptr [ %65, %64 ], [ %67, %66 ]
  store ptr %69, ptr %.phi.trans.insert.i.i, align 8
  store i32 %60, ptr %7, align 8
  br label %Vec_IntPush.exit.i

Vec_IntPush.exit.i:                               ; preds = %68, %Vec_IntGrow.exit.i.i, %.Vec_IntGrow.exit10_crit_edge.i.i
  %70 = phi ptr [ %.pre.i.i, %.Vec_IntGrow.exit10_crit_edge.i.i ], [ %69, %68 ], [ %58, %Vec_IntGrow.exit.i.i ]
  %71 = load i32, ptr %8, align 4
  %72 = add nsw i32 %71, 1
  store i32 %72, ptr %8, align 4
  %73 = sext i32 %71 to i64
  %74 = getelementptr inbounds i32, ptr %70, i64 %73
  store i32 %46, ptr %74, align 4
  %indvars.iv.next.i = add nuw nsw i64 %indvars.iv.i, 1
  %exitcond.not.i = icmp eq i64 %indvars.iv.next.i, %wide.trip.count.i
  br i1 %exitcond.not.i, label %Vec_IntPushArray.exit, label %44, !llvm.loop !66

Vec_IntPushArray.exit:                            ; preds = %Vec_IntPush.exit.i, %Vec_IntPush.exit, %4
  ret void
}